Certificate:
    Data:
        Version: 3 (0x2)
        Serial Number: 4 (0x4)
    Signature Algorithm: md5WithRSAEncryption
        Issuer: C=IT, ST=Pisa, L=Pisa, O=B&M, OU=B&M, CN=fra/emailAddress=secretchat@cert.it
        Validity
            Not Before: Jun 26 16:27:33 2015 GMT
            Not After : Jun 25 16:27:33 2016 GMT
        Subject: CN=client1@client.it, ST=ITALY, C=EU, O=client1
        Subject Public Key Info:
            Public Key Algorithm: rsaEncryption
                Public-Key: (1024 bit)
                Modulus:
                    00:c0:c7:ad:f2:cf:ea:f2:be:4f:26:7a:40:02:ad:
                    64:69:31:66:15:a7:cd:c1:6e:18:46:35:70:30:d8:
                    fe:ba:ec:f0:98:9f:f7:39:44:11:47:4c:b0:a6:85:
                    55:e3:31:4e:b7:5a:c9:e9:80:5a:da:34:87:f9:f7:
                    fa:5d:5c:f9:04:39:60:b5:8a:ac:2c:8a:11:63:3e:
                    8c:6f:b4:f0:27:fa:16:62:2f:25:e8:cd:c7:76:d0:
                    17:e8:0c:ad:31:d8:ea:61:d9:ac:40:8b:e8:da:3c:
                    9c:15:26:02:66:f3:b0:eb:d7:94:9a:f2:11:8f:44:
                    15:ea:26:db:74:9f:6a:93:b1
                Exponent: 65537 (0x10001)
        X509v3 extensions:
            X509v3 Basic Constraints: 
                CA:FALSE
    Signature Algorithm: md5WithRSAEncryption
         2f:43:e7:d7:98:32:89:a1:e6:f1:0c:3f:e6:4c:18:2f:06:a5:
         63:1b:af:d2:7e:8b:68:bc:13:bd:38:65:52:a4:5b:a2:79:b2:
         43:21:d9:5d:d4:ca:26:eb:d1:67:15:17:9f:95:e4:1e:0a:a4:
         42:eb:3f:94:86:7e:a1:7e:66:4f:50:6d:1f:0f:80:08:ab:8a:
         fe:3e:57:c7:3d:82:00:41:88:25:dd:4d:47:f3:0c:26:b2:23:
         34:ac:12:70:d9:7a:71:3f:07:9a:26:51:65:a8:2d:d4:49:87:
         5d:5a:7e:43:70:63:12:e1:07:e4:05:62:43:01:69:9f:5a:fe:
         ef:a6:47:7d:5c:2d:1c:f0:0d:4a:b7:e9:ad:dd:1c:e5:a6:40:
         d8:3f:dd:88:13:88:b4:7b:7d:cb:d0:32:36:d8:60:a6:d1:eb:
         1a:05:40:31:ba:1e:07:63:8f:95:57:c9:10:67:00:a8:6d:da:
         61:47:e4:9b:19:6b:9e:b8:24:d4:df:31:32:9f:4d:38:d5:32:
         1c:cf:55:d6:00:f2:76:e0:6b:1f:fe:b2:b1:d8:58:93:57:0b:
         fd:80:9d:2a:8c:96:5a:0b:7d:86:de:8b:93:20:25:51:3f:c8:
         02:c6:01:2e:69:7c:c4:2b:b7:81:03:ae:c5:42:18:d6:d2:5b:
         12:5e:47:ec
-----BEGIN CERTIFICATE-----
MIICxzCCAa+gAwIBAgIBBDANBgkqhkiG9w0BAQQFADB4MQswCQYDVQQGEwJJVDEN
MAsGA1UECAwEUGlzYTENMAsGA1UEBwwEUGlzYTEMMAoGA1UECgwDQiZNMQwwCgYD
VQQLDANCJk0xDDAKBgNVBAMMA2ZyYTEhMB8GCSqGSIb3DQEJARYSc2VjcmV0Y2hh
dEBjZXJ0Lml0MB4XDTE1MDYyNjE2MjczM1oXDTE2MDYyNTE2MjczM1owSzEaMBgG
A1UEAwwRY2xpZW50MUBjbGllbnQuaXQxDjAMBgNVBAgMBUlUQUxZMQswCQYDVQQG
EwJFVTEQMA4GA1UECgwHY2xpZW50MTCBnzANBgkqhkiG9w0BAQEFAAOBjQAwgYkC
gYEAwMet8s/q8r5PJnpAAq1kaTFmFafNwW4YRjVwMNj+uuzwmJ/3OUQRR0ywpoVV
4zFOt1rJ6YBa2jSH+ff6XVz5BDlgtYqsLIoRYz6Mb7TwJ/oWYi8l6M3HdtAX6Ayt
MdjqYdmsQIvo2jycFSYCZvOw69eUmvIRj0QV6ibbdJ9qk7ECAwEAAaMNMAswCQYD
VR0TBAIwADANBgkqhkiG9w0BAQQFAAOCAQEAL0Pn15gyiaHm8Qw/5kwYLwalYxuv
0n6LaLwTvThlUqRbonmyQyHZXdTKJuvRZxUXn5XkHgqkQus/lIZ+oX5mT1BtHw+A
CKuK/j5Xxz2CAEGIJd1NR/MMJrIjNKwScNl6cT8HmiZRZagt1EmHXVp+Q3BjEuEH
5AViQwFpn1r+76ZHfVwtHPANSrfprd0c5aZA2D/diBOItHt9y9AyNthgptHrGgVA
MboeB2OPlVfJEGcAqG3aYUfkmxlrnrgk1N8xMp9NONUyHM9V1gDyduBrH/6ysdhY
k1cL/YCdKoyWWgt9ht6LkyAlUT/IAsYBLml8xCu3gQOuxUIY1tJbEl5H7A==
-----END CERTIFICATE-----
