Certificate:
    Data:
        Version: 3 (0x2)
        Serial Number: 5 (0x5)
    Signature Algorithm: md5WithRSAEncryption
        Issuer: C=IT, ST=Pisa, L=Pisa, O=B&M, OU=B&M, CN=fra/emailAddress=secretchat@cert.it
        Validity
            Not Before: Jul  2 10:01:58 2015 GMT
            Not After : Jul  1 10:01:58 2016 GMT
        Subject: CN=client1@client.it, ST=IT, C=EU, O=client1
        Subject Public Key Info:
            Public Key Algorithm: rsaEncryption
                Public-Key: (1024 bit)
                Modulus:
                    00:cc:ef:3e:dd:85:5f:34:84:c6:10:60:81:37:d7:
                    f4:74:05:93:fc:1f:ea:b9:4d:70:bc:ff:3d:87:51:
                    37:fc:33:ee:00:8e:56:e7:3d:af:f2:83:62:ba:4d:
                    b9:f7:75:2c:06:95:92:e5:23:55:b9:64:a6:c0:fd:
                    20:f4:ba:7a:90:3e:7c:45:f4:5c:62:38:ee:23:c4:
                    fa:d6:6e:49:f5:cf:79:a2:3d:0d:b0:e4:ac:fb:68:
                    60:88:d7:8a:ae:4f:8b:04:bc:5e:19:6c:57:b7:9a:
                    90:5d:8e:44:d5:08:5d:1e:cb:77:92:ee:bc:8a:40:
                    b2:97:78:8d:bc:b2:7b:2d:f5
                Exponent: 65537 (0x10001)
        X509v3 extensions:
            X509v3 Basic Constraints: 
                CA:FALSE
    Signature Algorithm: md5WithRSAEncryption
         98:59:71:47:30:98:24:3d:8e:68:f9:b9:6f:31:75:6e:2f:17:
         22:3e:a6:cd:14:18:cf:8b:7f:2c:91:20:65:49:e2:22:5a:68:
         67:36:33:c4:ab:b9:9f:d6:e9:f7:ee:4d:ed:73:c2:eb:c9:2e:
         f3:fb:cc:d2:aa:03:e7:b5:ee:9d:8d:57:62:97:ec:42:f8:8e:
         90:b1:be:7c:80:73:d7:ac:45:05:12:67:d1:9d:22:d9:7e:e9:
         89:0c:e8:b8:17:96:ef:4b:ea:77:1a:f2:c0:ee:52:ae:8f:87:
         f5:49:b7:8b:eb:56:73:98:79:1c:42:42:7a:c6:b8:e5:3b:54:
         76:9f:b6:2d:c3:72:e7:13:92:29:b6:8b:2f:af:1e:93:36:c9:
         20:f9:d9:4b:b8:8d:10:99:65:22:ad:dd:ea:08:39:8d:8e:8f:
         74:13:73:e5:ae:29:fe:eb:aa:b7:eb:f0:25:b2:df:48:ed:78:
         12:61:ab:00:5e:46:f8:bf:3d:5e:07:b9:f2:a8:d5:56:65:a5:
         bc:86:4f:34:de:66:72:78:c7:66:d3:5a:82:67:ad:3b:b6:f3:
         4b:8e:32:bf:7a:79:ce:9d:e6:5a:92:1a:5c:86:68:e7:cf:fe:
         9b:28:37:55:9f:53:5a:80:71:65:7a:7b:bf:92:22:18:cd:33:
         ca:60:15:98
-----BEGIN CERTIFICATE-----
MIICxDCCAaygAwIBAgIBBTANBgkqhkiG9w0BAQQFADB4MQswCQYDVQQGEwJJVDEN
MAsGA1UECAwEUGlzYTENMAsGA1UEBwwEUGlzYTEMMAoGA1UECgwDQiZNMQwwCgYD
VQQLDANCJk0xDDAKBgNVBAMMA2ZyYTEhMB8GCSqGSIb3DQEJARYSc2VjcmV0Y2hh
dEBjZXJ0Lml0MB4XDTE1MDcwMjEwMDE1OFoXDTE2MDcwMTEwMDE1OFowSDEaMBgG
A1UEAwwRY2xpZW50MUBjbGllbnQuaXQxCzAJBgNVBAgMAklUMQswCQYDVQQGEwJF
VTEQMA4GA1UECgwHY2xpZW50MTCBnzANBgkqhkiG9w0BAQEFAAOBjQAwgYkCgYEA
zO8+3YVfNITGEGCBN9f0dAWT/B/quU1wvP89h1E3/DPuAI5W5z2v8oNiuk2593Us
BpWS5SNVuWSmwP0g9Lp6kD58RfRcYjjuI8T61m5J9c95oj0NsOSs+2hgiNeKrk+L
BLxeGWxXt5qQXY5E1QhdHst3ku68ikCyl3iNvLJ7LfUCAwEAAaMNMAswCQYDVR0T
BAIwADANBgkqhkiG9w0BAQQFAAOCAQEAmFlxRzCYJD2OaPm5bzF1bi8XIj6mzRQY
z4t/LJEgZUniIlpoZzYzxKu5n9bp9+5N7XPC68ku8/vM0qoD57XunY1XYpfsQviO
kLG+fIBz16xFBRJn0Z0i2X7piQzouBeW70vqdxrywO5Sro+H9Um3i+tWc5h5HEJC
esa45TtUdp+2LcNy5xOSKbaLL68ekzbJIPnZS7iNEJllIq3d6gg5jY6PdBNz5a4p
/uuqt+vwJbLfSO14EmGrAF5G+L89Xge58qjVVmWlvIZPNN5mcnjHZtNagmetO7bz
S44yv3p5zp3mWpIaXIZo58/+myg3VZ9TWoBxZXp7v5IiGM0zymAVmA==
-----END CERTIFICATE-----
